; Function Attrs: mustprogress uwtable
define void @_ZN7rocksdb22BlockBasedTableBuilder27SetSeqnoTimeTablePropertiesERKNSt7__cxx1112basic_stringIcSt11char_traitsIcESaIcEEEm(ptr nocapture noundef nonnull readonly align 8 dereferenceable(24) %this, ptr noundef nonnull align 8 dereferenceable(32) %encoded_seqno_to_time_mapping, i64 noundef %oldest_ancestor_time) unnamed_addr #3 align 2 {
entry:
  %rep_ = getelementptr inbounds i8, ptr %this, i64 8
  %0 = load ptr, ptr %rep_, align 8
  %seqno_to_time_mapping = getelementptr inbounds i8, ptr %0, i64 2400
  %call = tail call noundef nonnull align 8 dereferenceable(32) ptr @_ZNSt7__cxx1112basic_stringIcSt11char_traitsIcESaIcEEaSERKS4_(ptr noundef nonnull align 8 dereferenceable(32) %seqno_to_time_mapping, ptr noundef nonnull align 8 dereferenceable(32) %encoded_seqno_to_time_mapping)
  %1 = load ptr, ptr %rep_, align 8
  %creation_time = getelementptr inbounds i8, ptr %1, i64 1984
  store i64 %oldest_ancestor_time, ptr %creation_time, align 8
  ret void
}